target datalayout = "e-m:e-p270:32:32-p271:32:32-p272:64:64-i64:64-i128:128-f80:128-n8:16:32:64-S128"
target triple = "x86_64-pc-linux-gnu"

%struct.evp_pkey_st = type { i32, i32, ptr, ptr, ptr, %union.legacy_pkey_st, %union.legacy_pkey_st, %struct.CRYPTO_REF_COUNT, ptr, ptr, i32, i8, %struct.crypto_ex_data_st, ptr, ptr, i64, ptr, i64, %struct.anon }
%union.legacy_pkey_st = type { ptr }
%struct.CRYPTO_REF_COUNT = type { i32 }
%struct.crypto_ex_data_st = type { ptr, ptr }
%struct.anon = type { i32, i32, i32 }

@.str = private unnamed_addr constant [30 x i8] c"../openssl/crypto/evp/p_lib.c\00", align 1
@__func__.EVP_PKEY_new = private unnamed_addr constant [13 x i8] c"EVP_PKEY_new\00", align 1

; Function Attrs: inlinehint nounwind uwtable
define internal void @CRYPTO_FREE_REF(ptr noundef %0) #3 {
  %2 = alloca ptr, align 8
  store ptr %0, ptr %2, align 8, !tbaa !31
  ret void
}

; Function Attrs: inlinehint nounwind uwtable
define internal i32 @CRYPTO_NEW_REF(ptr noundef %0, i32 noundef %1) #3 {
  %3 = alloca ptr, align 8
  %4 = alloca i32, align 4
  store ptr %0, ptr %3, align 8, !tbaa !31
  store i32 %1, ptr %4, align 4, !tbaa !8
  %5 = load i32, ptr %4, align 4, !tbaa !8
  %6 = load ptr, ptr %3, align 8, !tbaa !31
  %7 = getelementptr inbounds nuw %struct.CRYPTO_REF_COUNT, ptr %6, i32 0, i32 0
  store atomic i32 %5, ptr %7 seq_cst, align 4, !tbaa !136
  ret i32 1
}

; Function Attrs: nounwind uwtable
define ptr @EVP_PKEY_new() #0 {
  %1 = alloca ptr, align 8
  %2 = alloca ptr, align 8
  %3 = alloca i32, align 4
  call void @llvm.lifetime.start.p0(i64 8, ptr %2) #8
  %4 = call noalias ptr @CRYPTO_zalloc(i64 noundef 152, ptr noundef @.str, i32 noundef 1492)
  store ptr %4, ptr %2, align 8, !tbaa !3
  %5 = load ptr, ptr %2, align 8, !tbaa !3
  %6 = icmp eq ptr %5, null
  br i1 %6, label %7, label %8

7:                                                ; preds = %0
  store ptr null, ptr %1, align 8
  store i32 1, ptr %3, align 4
  br label %45

8:                                                ; preds = %0
  %9 = load ptr, ptr %2, align 8, !tbaa !3
  %10 = getelementptr inbounds nuw %struct.evp_pkey_st, ptr %9, i32 0, i32 0
  store i32 0, ptr %10, align 8, !tbaa !29
  %11 = load ptr, ptr %2, align 8, !tbaa !3
  %12 = getelementptr inbounds nuw %struct.evp_pkey_st, ptr %11, i32 0, i32 1
  store i32 0, ptr %12, align 4, !tbaa !91
  %13 = load ptr, ptr %2, align 8, !tbaa !3
  %14 = getelementptr inbounds nuw %struct.evp_pkey_st, ptr %13, i32 0, i32 7
  %15 = call i32 @CRYPTO_NEW_REF(ptr noundef %14, i32 noundef 1)
  %16 = icmp ne i32 %15, 0
  br i1 %16, label %18, label %17

17:                                               ; preds = %8
  br label %38

18:                                               ; preds = %8
  %19 = call ptr @CRYPTO_THREAD_lock_new()
  %20 = load ptr, ptr %2, align 8, !tbaa !3
  %21 = getelementptr inbounds nuw %struct.evp_pkey_st, ptr %20, i32 0, i32 8
  store ptr %19, ptr %21, align 8, !tbaa !60
  %22 = load ptr, ptr %2, align 8, !tbaa !3
  %23 = getelementptr inbounds nuw %struct.evp_pkey_st, ptr %22, i32 0, i32 8
  %24 = load ptr, ptr %23, align 8, !tbaa !60
  %25 = icmp eq ptr %24, null
  br i1 %25, label %26, label %27

26:                                               ; preds = %18
  call void @ERR_new()
  call void @ERR_set_debug(ptr noundef @.str, i32 noundef 1505, ptr noundef @__func__.EVP_PKEY_new)
  call void (i32, i32, ptr, ...) @ERR_set_error(i32 noundef 6, i32 noundef 524303, ptr noundef null)
  br label %38

27:                                               ; preds = %18
  %28 = load ptr, ptr %2, align 8, !tbaa !3
  %29 = getelementptr inbounds nuw %struct.evp_pkey_st, ptr %28, i32 0, i32 10
  store i32 1, ptr %29, align 8, !tbaa !30
  %30 = load ptr, ptr %2, align 8, !tbaa !3
  %31 = load ptr, ptr %2, align 8, !tbaa !3
  %32 = getelementptr inbounds nuw %struct.evp_pkey_st, ptr %31, i32 0, i32 12
  %33 = call i32 @CRYPTO_new_ex_data(i32 noundef 17, ptr noundef %30, ptr noundef %32)
  %34 = icmp ne i32 %33, 0
  br i1 %34, label %36, label %35

35:                                               ; preds = %27
  call void @ERR_new()
  call void @ERR_set_debug(ptr noundef @.str, i32 noundef 1512, ptr noundef @__func__.EVP_PKEY_new)
  call void (i32, i32, ptr, ...) @ERR_set_error(i32 noundef 6, i32 noundef 524303, ptr noundef null)
  br label %38

36:                                               ; preds = %27
  %37 = load ptr, ptr %2, align 8, !tbaa !3
  store ptr %37, ptr %1, align 8
  store i32 1, ptr %3, align 4
  br label %45

38:                                               ; preds = %35, %26, %17
  %39 = load ptr, ptr %2, align 8, !tbaa !3
  %40 = getelementptr inbounds nuw %struct.evp_pkey_st, ptr %39, i32 0, i32 7
  call void @CRYPTO_FREE_REF(ptr noundef %40)
  %41 = load ptr, ptr %2, align 8, !tbaa !3
  %42 = getelementptr inbounds nuw %struct.evp_pkey_st, ptr %41, i32 0, i32 8
  %43 = load ptr, ptr %42, align 8, !tbaa !60
  call void @CRYPTO_THREAD_lock_free(ptr noundef %43)
  %44 = load ptr, ptr %2, align 8, !tbaa !3
  call void @CRYPTO_free(ptr noundef %44, ptr noundef @.str, i32 noundef 1521)
  store ptr null, ptr %1, align 8
  store i32 1, ptr %3, align 4
  br label %45

45:                                               ; preds = %38, %36, %7
  call void @llvm.lifetime.end.p0(i64 8, ptr %2) #8
  %46 = load ptr, ptr %1, align 8
  ret ptr %46
}