; Function Attrs: nounwind uwtable
define ptr @EVP_PKEY_new() local_unnamed_addr #0 {
  %1 = tail call noalias ptr @CRYPTO_zalloc(i64 noundef 152, ptr noundef nonnull @.str, i32 noundef 1492) #12
  %2 = icmp eq ptr %1, null
  br i1 %2, label %15, label %3

3:                                                ; preds = %0
  store i32 0, ptr %1, align 8, !tbaa !26
  %4 = getelementptr inbounds nuw i8, ptr %1, i64 4
  store i32 0, ptr %4, align 4, !tbaa !77
  %5 = getelementptr inbounds nuw i8, ptr %1, i64 48
  store atomic i32 1, ptr %5 seq_cst, align 4, !tbaa !98
  %6 = tail call ptr @CRYPTO_THREAD_lock_new() #12
  %7 = getelementptr inbounds nuw i8, ptr %1, i64 56
  store ptr %6, ptr %7, align 8, !tbaa !36
  %8 = icmp eq ptr %6, null
  br i1 %8, label %13, label %9

9:                                                ; preds = %3
  %10 = getelementptr inbounds nuw i8, ptr %1, i64 72
  store i32 1, ptr %10, align 8, !tbaa !27
  %11 = getelementptr inbounds nuw i8, ptr %1, i64 80
  %12 = tail call i32 @CRYPTO_new_ex_data(i32 noundef 17, ptr noundef nonnull %1, ptr noundef nonnull %11) #12
  %.not = icmp eq i32 %12, 0
  br i1 %.not, label %13, label %15

13:                                               ; preds = %9, %3
  %.sink = phi i32 [ 1505, %3 ], [ 1512, %9 ]
  tail call void @ERR_new() #12
  tail call void @ERR_set_debug(ptr noundef nonnull @.str, i32 noundef %.sink, ptr noundef nonnull @__func__.EVP_PKEY_new) #12
  tail call void (i32, i32, ptr, ...) @ERR_set_error(i32 noundef 6, i32 noundef 524303, ptr noundef null) #12
  %14 = load ptr, ptr %7, align 8, !tbaa !36
  tail call void @CRYPTO_THREAD_lock_free(ptr noundef %14) #12
  tail call void @CRYPTO_free(ptr noundef nonnull %1, ptr noundef nonnull @.str, i32 noundef 1521) #12
  br label %15

15:                                               ; preds = %9, %0, %13
  %.0 = phi ptr [ null, %13 ], [ null, %0 ], [ %1, %9 ]
  ret ptr %.0
}